; Function Attrs: mustprogress uwtable
define void @_ZN3gmx10ImdSessionC2ERKNS_8MDLoggerE(ptr noundef nonnull writeonly align 8 captures(none) dereferenceable(8) %0, ptr noundef nonnull align 8 dereferenceable(40) %1) unnamed_addr #0 align 2 personality ptr @__gxx_personality_v0 {
  %3 = tail call noalias noundef nonnull dereferenceable(296) ptr @_Znwm(i64 noundef 296) #24
  invoke void @_ZN3gmx10ImdSession4ImplC1ERKNS_8MDLoggerE(ptr noundef nonnull align 8 dereferenceable(296) %3, ptr noundef nonnull align 8 dereferenceable(40) %1)
          to label %4 unwind label %5

4:                                                ; preds = %2
  store ptr %3, ptr %0, align 8, !tbaa !127
  ret void

5:                                                ; preds = %2
  %6 = landingpad { ptr, i32 }
          cleanup
  tail call void @_ZdlPvm(ptr noundef nonnull %3, i64 noundef 296) #25
  resume { ptr, i32 } %6
}